target datalayout = "e-m:e-p270:32:32-p271:32:32-p272:64:64-i64:64-i128:128-f80:128-n8:16:32:64-S128"
target triple = "x86_64-pc-linux-gnu"

; Function Attrs: nounwind uwtable
define i32 @png_get_int_32(ptr noundef %0) #0 {
  %2 = alloca i32, align 4
  %3 = alloca ptr, align 8
  %4 = alloca i32, align 4
  %5 = alloca i32, align 4
  store ptr %0, ptr %3, align 8, !tbaa !8
  call void @llvm.lifetime.start.p0(i64 4, ptr %4) #7
  %6 = load ptr, ptr %3, align 8, !tbaa !8
  %7 = load i8, ptr %6, align 1, !tbaa !10
  %8 = zext i8 %7 to i32
  %9 = shl i32 %8, 24
  %10 = load ptr, ptr %3, align 8, !tbaa !8
  %11 = getelementptr inbounds i8, ptr %10, i64 1
  %12 = load i8, ptr %11, align 1, !tbaa !10
  %13 = zext i8 %12 to i32
  %14 = shl i32 %13, 16
  %15 = add i32 %9, %14
  %16 = load ptr, ptr %3, align 8, !tbaa !8
  %17 = getelementptr inbounds i8, ptr %16, i64 2
  %18 = load i8, ptr %17, align 1, !tbaa !10
  %19 = zext i8 %18 to i32
  %20 = shl i32 %19, 8
  %21 = add i32 %15, %20
  %22 = load ptr, ptr %3, align 8, !tbaa !8
  %23 = getelementptr inbounds i8, ptr %22, i64 3
  %24 = load i8, ptr %23, align 1, !tbaa !10
  %25 = zext i8 %24 to i32
  %26 = add i32 %21, %25
  store i32 %26, ptr %4, align 4, !tbaa !11
  %27 = load i32, ptr %4, align 4, !tbaa !11
  %28 = and i32 %27, -2147483648
  %29 = icmp eq i32 %28, 0
  br i1 %29, label %30, label %32

30:                                               ; preds = %1
  %31 = load i32, ptr %4, align 4, !tbaa !11
  store i32 %31, ptr %2, align 4
  store i32 1, ptr %5, align 4
  br label %43

32:                                               ; preds = %1
  %33 = load i32, ptr %4, align 4, !tbaa !11
  %34 = xor i32 %33, -1
  %35 = add i32 %34, 1
  store i32 %35, ptr %4, align 4, !tbaa !11
  %36 = load i32, ptr %4, align 4, !tbaa !11
  %37 = and i32 %36, -2147483648
  %38 = icmp eq i32 %37, 0
  br i1 %38, label %39, label %42

39:                                               ; preds = %32
  %40 = load i32, ptr %4, align 4, !tbaa !11
  %41 = sub nsw i32 0, %40
  store i32 %41, ptr %2, align 4
  store i32 1, ptr %5, align 4
  br label %43

42:                                               ; preds = %32
  store i32 0, ptr %2, align 4
  store i32 1, ptr %5, align 4
  br label %43

43:                                               ; preds = %42, %39, %30
  call void @llvm.lifetime.end.p0(i64 4, ptr %4) #7
  %44 = load i32, ptr %2, align 4
  ret i32 %44
}